; Function Attrs: mustprogress uwtable
define noundef i32 @aiExportScene(ptr noundef %pScene, ptr noundef %pFormatId, ptr noundef %pFileName, i32 noundef %pPreprocessing) local_unnamed_addr #0 personality ptr @__gxx_personality_v0 {
entry:
  %exp.i = alloca %"class.Assimp::Exporter", align 8
  call void @llvm.lifetime.start.p0(i64 8, ptr nonnull %exp.i)
  call void @_ZN6Assimp8ExporterC1Ev(ptr noundef nonnull align 8 dereferenceable(8) %exp.i)
  %call5.i = invoke noundef i32 @_ZN6Assimp8Exporter6ExportEPK7aiScenePKcS5_jPKNS_16ExportPropertiesE(ptr noundef nonnull align 8 dereferenceable(8) %exp.i, ptr noundef %pScene, ptr noundef %pFormatId, ptr noundef %pFileName, i32 noundef %pPreprocessing, ptr noundef null)
          to label %aiExportSceneEx.exit unwind label %lpad.i

lpad.i:                                           ; preds = %entry
  %0 = landingpad { ptr, i32 }
          cleanup
  call void @_ZN6Assimp8ExporterD1Ev(ptr noundef nonnull align 8 dereferenceable(8) %exp.i) #10
  resume { ptr, i32 } %0

aiExportSceneEx.exit:                             ; preds = %entry
  call void @_ZN6Assimp8ExporterD1Ev(ptr noundef nonnull align 8 dereferenceable(8) %exp.i) #10
  call void @llvm.lifetime.end.p0(i64 8, ptr nonnull %exp.i)
  ret i32 %call5.i
}